(dp0
S'ATSG'
p1
((lp2
I39
a(lp3
F419.11148365465215
(lp4
F10007.0
cnumpy.core.multiarray
scalar
p5
(cnumpy
dtype
p6
(S'f8'
p7
I0
I1
tp8
Rp9
(I3
S'<'
p10
NNNI-1
I-1
I0
tp11
bS'\x00\x00\x00\x00\x80\x8b\xc3@'
p12
tp13
Rp14
tp15
sS'AMAG'
p16
((lp17
I51
a(lp18
F1028.8065843621398
(lp19
F10007.0
g5
(g9
S'\x00\x00\x00\x00\x80\x8b\xc3@'
p20
tp21
Rp22
tp23
sS'ACAD'
p24
((lp25
I43
aI234
aI374
aI412
aI435
aI458
aI562
aI572
aI707
aI731
aI750
aI825
aI913
aI973
aI1006
aI1184
aI1289
aI1477
aI1559
aI1585
aI1617
aI1648
aI1673
aI1784
a(lp26
I121
aI294
aI385
aI419
aI444
aI473
aI570
aI604
aI709
aI745
aI814
aI878
aI956
aI990
aI1102
aI1196
aI1321
aI1533
aI1570
aI1596
aI1634
aI1667
aI1696
aI1791
aF475.05938242280286
(lp27
F0.14999999999999858
aF-0.3000000000000007
aF-0.0669000000000004
aF-0.05000000000000071
aF-0.07500000000000284
aF-0.05000000000000071
aF-0.14949999999999974
aF0.004999999999999005
aF-0.09999999999999787
aF-0.07499999999999929
aF0.07499999999999929
aF0.05000000000000071
aF-0.01699999999999946
aF-0.10000000000000142
aF0.22499999999999787
aF-0.18499999999999872
aF-0.15000000000000213
aF-0.05000000000000071
aF-0.14999999999999858
aF-0.07499999999999929
aF-0.07499999999999929
aF-0.125
aF-0.05000000000000071
aF-0.1999999999999993
aF1.3249999999999993
aF-0.004400000000000404
aF-0.0625
aF-0.07500000000000284
aF-0.02500000000000213
aF0.0004999999999988347
aF-0.02499999999999858
aF0.23000000000000043
aF-0.07499999999999929
aF-0.125
aF-0.05000000000000071
aF-0.09999999999999787
aF-0.11700000000000088
aF-0.02500000000000213
aF-0.08500000000000085
aF-0.0
aF0.34999999999999787
aF-0.09999999999999787
aF-0.125
aF-0.02499999999999858
aF-0.07499999999999929
aF-0.10000000000000142
aF-0.0
aF10007.0
g5
(g9
S'\xd5l\x89F\x1c\x10\xc4@'
p28
tp29
Rp30
tp31
sS'JOBS'
p32
((lp33
I52
aI203
aI249
aI594
aI785
aI959
aI1006
aI1207
a(lp34
I81
aI244
aI455
aI719
aI955
aI998
aI1044
aF462.214005084354
(lp35
F-0.05970000000000297
aF-0.02499999999999858
aF0.6750000000000007
aF0.25
aF0.1999999999999993
aF-0.030100000000000904
aF-0.05000000000000071
aF0.9603000000000002
aF-0.09499999999999886
aF0.18999999999999773
aF-0.08999999999999986
aF-0.10999999999999943
aF-0.10010000000000119
aF1.3449999999999989
aF10007.0
g5
(g9
S'\x8b,\x99\xa5\xc7\xb0\xc6@'
p36
tp37
Rp38
tp39
sS'GOOGL'
p40
((lp41
I41
a(lp42
F195.52253397204026
(lp43
F10007.0
g5
(g9
S'\x00\x00\x00\x00\x80\x8b\xc3@'
p44
tp45
Rp46
tp47
sS'SRCE'
p48
((lp49
I38
aI198
aI254
aI463
aI562
a(lp50
I78
aI208
aI447
aI546
aI566
aF189.6029335365877
(lp51
F-1.261800000000001
aF-0.5212999999999965
aF2.1999999999999957
aF0.38000000000000256
aF-0.1962999999999937
aF1.0420999999999978
aF-0.03340000000000032
aF-0.21999999999999886
aF-0.29999999999999716
aF10007.0
g5
(g9
S'\x87w\xb1i\xc41\xc4@'
p52
tp53
Rp54
tp55
sS'ACIW'
p56
((lp57
I38
aI118
aI156
aI198
aI233
aI321
aI328
aI345
aI363
aI388
aI428
aI532
aI547
aI556
aI627
aI675
aI723
aI741
aI857
aI912
aI943
aI975
aI1015
aI1144
aI1172
aI1216
aI1244
aI1264
aI1292
aI1509
aI1675
aI1757
aI1865
aI1897
a(lp58
I103
aI129
aI192
aI227
aI282
aI325
aI339
aI350
aI375
aI424
aI522
aI545
aI555
aI617
aI665
aI720
aI725
aI780
aI901
aI935
aI946
aI1008
aI1136
aI1157
aI1194
aI1221
aI1250
aI1273
aI1418
aI1513
aI1752
aI1815
aI1889
aF206.39834881320948
(lp59
F-0.020000000000003126
aF-0.014899999999997249
aF-0.030000000000001137
aF-0.023400000000002308
aF-0.020000000000003126
aF-0.039400000000000546
aF-0.020000000000003126
aF-0.021999999999998465
aF-0.01999999999999602
aF-0.04999999999999716
aF0.05380000000000251
aF-0.017499999999998295
aF-0.0058000000000006935
aF-0.001100000000000989
aF-0.027599999999999625
aF-0.03999999999999915
aF-0.03999999999999915
aF-0.10000000000000142
aF-0.020000000000003126
aF-0.00999999999999801
aF-0.030000000000001137
aF-0.009399999999999409
aF0.00999999999999801
aF-0.00999999999999801
aF-0.02499999999999858
aF-0.030000000000001137
aF-0.05999999999999517
aF-0.030000000000001137
aF0.015000000000000568
aF-0.023299999999998988
aF-0.005000000000002558
aF-0.02999999999999403
aF-0.02829999999999444
aF-0.02499999999999858
aF-0.029899999999997817
aF-0.045000000000001705
aF-0.028400000000004866
aF-0.049399999999998556
aF-0.020000000000003126
aF-0.012000000000000455
aF-0.02499999999999858
aF-0.06499999999999773
aF-0.00999999999999801
aF-0.033699999999996066
aF-0.007800000000003138
aF-0.007999999999995566
aF-0.031100000000002126
aF-0.017600000000001614
aF-0.05999999999999517
aF-0.030000000000001137
aF-0.010000000000005116
aF-0.030000000000001137
aF-0.01999999999999602
aF-0.020000000000003126
aF-0.01939999999999742
aF-0.035000000000003695
aF-0.01999999999999602
aF-0.020000000000003126
aF-0.01999999999999602
aF-0.04999999999999716
aF-0.02499999999999858
aF0.03669999999999618
aF0.1600000000000037
aF-0.015000000000000568
aF-0.02829999999999444
aF-0.03009999999999735
aF10007.0
g5
(g9
S'\xbeN&wU\xcc\xc4@'
p60
tp61
Rp62
tp63
sS'ACIU'
p64
((lp65
I42
aI200
aI280
aI310
aI333
aI342
aI453
aI582
aI725
aI742
aI812
aI940
aI993
aI1077
aI1253
aI1379
aI1516
aI1605
aI1654
aI1803
a(lp66
I105
aI242
aI296
aI324
aI338
aI445
aI483
aI640
aI736
aI754
aI920
aI954
aI1034
aI1157
aI1310
aI1436
aI1596
aI1609
aI1784
aF333.9176892895901
(lp67
F0.05249999999999844
aF-0.05000000000000071
aF-0.14000000000000057
aF-0.14000000000000057
aF-0.060000000000002274
aF0.16000000000000014
aF-0.05999999999999872
aF-0.28000000000000114
aF-0.0799999999999983
aF-0.17999999999999972
aF0.05000000000000071
aF-0.14999999999999858
aF-0.13999999999999702
aF0.26500000000000057
aF-0.15000000000000213
aF-0.2900000000000027
aF0.16999999999999815
aF-0.120000000000001
aF0.6900000000000013
aF0.14999999999999858
aF-0.120000000000001
aF-0.08999999999999986
aF-0.14000000000000057
aF-0.05000000000000071
aF-0.019999999999999574
aF0.17999999999999972
aF0.3200000000000003
aF-0.129999999999999
aF-0.129999999999999
aF-0.10999999999999943
aF-0.11999999999999744
aF-0.1999999999999993
aF0.3049999999999997
aF-0.3100000000000023
aF0.11999999999999744
aF-0.240000000000002
aF-0.129999999999999
aF-0.053599999999999426
aF10007.0
g5
(g9
S'\\I\xe5e\xa0\xc9\xc3@'
p68
tp69
Rp70
tp71
sS'ARAY'
p72
((lp73
I39
aI240
aI246
aI278
aI408
aI530
aI575
aI604
aI618
aI760
aI922
aI1020
aI1041
aI1070
aI1080
aI1248
aI1329
aI1370
aI1469
aI1498
aI1506
aI1556
aI1600
aI1640
aI1699
aI1706
aI1731
aI1773
aI1926
a(lp74
I238
aI243
aI274
aI280
aI488
aI539
aI579
aI613
aI685
aI839
aI1004
aI1036
aI1044
aI1076
aI1158
aI1326
aI1344
aI1448
aI1489
aI1505
aI1544
aI1588
aI1635
aI1678
aI1703
aI1719
aI1768
aI1817
aI1975
aF305.6234718826406
(lp75
F0.6400000000000006
aF-0.01999999999999602
aF-0.015000000000000568
aF-0.054999999999999716
aF0.05000000000000426
aF-0.03999999999999915
aF-0.054999999999999716
aF-0.020000000000003126
aF0.044899999999998386
aF0.0
aF0.01999999999999602
aF-0.030000000000001137
aF-0.01999999999999602
aF-0.03999999999999915
aF0.054999999999999716
aF0.00999999999999801
aF-0.045000000000001705
aF0.020000000000003126
aF-0.015000000000000568
aF-0.023599999999994736
aF-0.00999999999999801
aF0.0
aF-0.04999999999999716
aF-0.030000000000001137
aF-0.010000000000005116
aF0.0
aF-0.01999999999999602
aF0.0
aF-0.01999999999999602
aF-0.00999999999999801
aF-0.045000000000001705
aF-0.02499999999999858
aF0.23000000000000398
aF-0.07000000000000028
aF-0.00999999999999801
aF-0.015000000000000568
aF-0.01010000000000133
aF0.0049999999999954525
aF-0.00999999999999801
aF-0.020000000000003126
aF-0.00999999999999801
aF-0.030000000000001137
aF-0.02999999999999403
aF-0.005000000000002558
aF-0.05000000000000426
aF-0.02499999999999858
aF-0.054999999999999716
aF-0.013599999999996726
aF-0.01999999999999602
aF-0.04999999999999716
aF-0.07000000000000028
aF-0.060000000000002274
aF-0.030000000000001137
aF-0.010000000000005116
aF-0.01999999999999602
aF-0.01999999999999602
aF0.030000000000001137
aF10007.0
g5
(g9
S'\xf2$\r#\x08\x07\xc5@'
p76
tp77
Rp78
tp79
sS'AIQ'
p80
((lp81
I52
a(lp82
F1000.0
(lp83
F10007.0
g5
(g9
S'\x00\x00\x00\x00\x80\x8b\xc3@'
p84
tp85
Rp86
tp87
sS'AMGN'
p88
((lp89
I38
a(lp90
F766.5831091077739
(lp91
F10007.0
g5
(g9
S'\x00\x00\x00\x00\x80\x8b\xc3@'
p92
tp93
Rp94
tp95
sS'ALDR'
p96
((lp97
I38
a(lp98
F1002.004008016032
(lp99
F10007.0
g5
(g9
S'\x00\x00\x00\x00\x80\x8b\xc3@'
p100
tp101
Rp102
tp103
sS'XLRN'
p104
((lp105
I38
aI144
aI241
aI286
aI298
aI315
aI331
aI369
aI394
aI466
aI564
aI679
aI766
aI804
aI812
aI837
aI949
aI1004
aI1065
aI1080
aI1116
aI1154
aI1273
aI1370
aI1412
aI1431
aI1505
a(lp106
I84
aI199
aI279
aI290
aI311
aI317
aI335
aI381
aI444
aI505
aI625
aI753
aI794
aI808
aI817
aI888
aI964
aI1059
aI1077
aI1085
aI1129
aI1165
aI1287
aI1379
aI1417
aI1449
aF2232.142857142857
(lp107
F0.009999999999999787
aF0.0033000000000003027
aF-0.040000000000000036
aF-0.05999999999999961
aF-0.05999999999999961
aF-0.019999999999999574
aF-0.019999999999999574
aF-0.05999999999999961
aF0.009999999999999787
aF-0.020000000000000462
aF-0.02999999999999936
aF-0.01499999999999968
aF-0.022800000000000153
aF-0.0495000000000001
aF-0.019999999999999574
aF-0.009999999999999787
aF-0.015000000000000568
aF-0.03770000000000007
aF-0.01499999999999968
aF-0.015499999999999403
aF-0.009999999999999787
aF-0.01499999999999968
aF-0.034000000000000696
aF-0.019999999999999574
aF-0.040000000000000036
aF-0.010000000000000675
aF-0.006699999999999484
aF-0.040000000000000036
aF-0.05999999999999961
aF-0.009999999999999787
aF-0.0699999999999994
aF-0.009999999999999787
aF-0.009999999999999787
aF-0.040000000000000036
aF-0.040000000000000036
aF-0.0
aF-0.03999999999999915
aF-0.04499999999999993
aF-0.03230000000000022
aF-0.040000000000000036
aF-0.019999999999999574
aF0.004999999999999893
aF-0.020000000000000462
aF-0.017699999999999605
aF-0.01499999999999968
aF0.0045000000000001705
aF-0.009999999999999787
aF0.10099999999999998
aF0.009999999999999787
aF-0.019999999999999574
aF-0.020000000000000462
aF-0.03000000000000025
aF10007.0
g5
(g9
S'\xbem\xdb\xb6M4\xc0@'
p108
tp109
Rp110
tp111
sS'AAON'
p112
((lp113
I39
aI146
aI438
aI640
aI1015
aI1304
aI1388
aI1498
aI1578
aI1798
aI1895
aI1904
aI1943
a(lp114
I125
aI204
aI604
aI972
aI1142
aI1308
aI1452
aI1571
aI1734
aI1872
aI1902
aI1927
aF260.7561929595828
(lp115
F-0.05000000000000426
aF-0.75
aF1.6499999999999986
aF45.550000000000004
aF5.849999999999994
aF-0.6500000000000057
aF-1.0999999999999943
aF-0.25
aF5.0
aF-1.25
aF-1.2492000000000019
aF-0.5
aF-1.3000000000000043
aF9.05
aF-0.15000000000000213
aF-0.8499999999999943
aF3.1499999999999915
aF0.45000000000000284
aF-0.20000000000000284
aF-3.5
aF-1.2999999999999972
aF-1.6500000000000057
aF-0.3491999999999962
aF-0.5999999999999943
aF10007.0
g5
(g9
S'\xe8\xb8*\x80@\x1b\xd8@'
p116
tp117
Rp118
tp119
sS'SHLM'
p120
((lp121
I38
aI250
aI555
aI697
aI996
aI1038
aI1184
aI1289
aI1497
aI1676
aI1708
aI1859
a(lp122
I137
aI282
aI571
aI935
aI999
aI1128
aI1220
aI1332
aI1665
aI1700
aI1759
aF1675.0418760469013
(lp123
F0.35000000000000053
aF-0.1479999999999997
aF-0.06599999999999984
aF0.32719999999999994
aF-0.09999999999999964
aF0.08000000000000007
aF-0.16999999999999993
aF0.019999999999999574
aF0.43000000000000016
aF0.009999999999999787
aF0.0
aF0.4300000000000006
aF1.2670000000000003
aF0.6161999999999996
aF0.020000000000000462
aF-0.04999999999999982
aF-0.20000000000000018
aF-0.07000000000000028
aF0.3999999999999999
aF-0.040000000000000036
aF-0.15000000000000036
aF0.07000000000000028
aF10007.0
g5
(g9
S'\xfb\xd2\xc4a,\x0c\xce@'
p124
tp125
Rp126
tp127
sS'ABIL'
p128
((lp129
I38
aI134
aI165
aI316
aI554
aI723
aI837
aI976
aI1157
aI1186
aI1195
aI1229
aI1363
aI1511
aI1681
aI1913
aI1958
a(lp130
I78
aI161
aI199
aI397
aI635
aI800
aI917
aI1138
aI1173
aI1191
aI1208
aI1314
aI1433
aI1573
aI1755
aI1923
aF389.8635477582846
(lp131
F-0.4499999999999993
aF-0.10269999999999868
aF-0.22500000000000142
aF3.599999999999998
aF0.1999999999999993
aF-0.20860000000000056
aF0.10499999999999687
aF1.4720999999999975
aF-0.10000000000000142
aF-0.10010000000000119
aF-0.05000000000000071
aF1.1350000000000016
aF-0.6999999999999993
aF-0.09999999999999787
aF-0.005299999999998306
aF-0.3500000000000014
aF-0.17719999999999914
aF-0.10050000000000026
aF0.34999999999999787
aF0.29999999999999716
aF1.4414000000000016
aF-0.20000000000000284
aF0.027099999999997237
aF-0.10000000000000142
aF-0.1501000000000019
aF-0.0
aF-0.06500000000000128
aF-0.5999999999999979
aF0.3000000000000007
aF-0.04999999999999716
aF1.0446999999999989
aF-0.3000000000000007
aF10007.0
g5
(g9
S'&\xae\xa3\xb8\x0e\xde\xc8@'
p132
tp133
Rp134
tp135
sS'ADHD'
p136
((lp137
I38
a(lp138
F1047.1204188481674
(lp139
F10007.0
g5
(g9
S'\x00\x00\x00\x00\x80\x8b\xc3@'
p140
tp141
Rp142
tp143
sS'ABEO'
p144
((lp145
I56
aI142
aI173
aI411
aI444
aI467
aI639
aI706
aI937
aI971
aI1100
aI1135
aI1163
aI1448
aI1569
a(lp146
I138
aI163
aI184
aI416
aI446
aI486
aI691
aI752
aI964
aI975
aI1122
aI1142
aI1230
aI1557
aI1735
aF10582.010582010582
(lp147
F0.041200000000000014
aF-0.06489999999999996
aF-0.030000000000000027
aF-0.028000000000000025
aF-0.05790000000000006
aF-0.022399999999999975
aF0.005199999999999982
aF-0.024899999999999922
aF-0.020499999999999963
aF-0.011199999999999988
aF-0.017100000000000004
aF-0.0010999999999999899
aF0.002799999999999969
aF0.03750000000000003
aF0.07729999999999998
aF-0.03390000000000004
aF-0.06479999999999997
aF0.09199999999999997
aF-0.028000000000000025
aF-0.037900000000000045
aF0.3056
aF-0.03169999999999995
aF0.08150000000000007
aF-0.016199999999999992
aF0.05070000000000002
aF-0.0029000000000000137
aF0.0010000000000000009
aF0.05130000000000001
aF-0.008000000000000007
aF10007.0
g5
(g9
S',`\xad\x805e\xc9@'
p148
tp149
Rp150
tp151
sS'CAFD'
p152
((lp153
I43
aI266
aI533
aI569
aI721
aI778
aI1007
aI1068
aI1180
a(lp154
I78
aI423
aI542
aI647
aI729
aI858
aI1050
aI1083
aF1117.9429849077696
(lp155
F-0.20509999999999984
aF1.0101999999999993
aF-0.3100000000000005
aF-0.2400000000000002
aF-0.09999999999999964
aF0.15399999999999991
aF-0.08000000000000007
aF-0.11000000000000032
aF0.7399000000000004
aF0.5801999999999996
aF-0.41000000000000014
aF0.08999999999999986
aF0.07000000000000028
aF0.45399999999999885
aF-0.09999999999999964
aF0.8700000000000001
aF10007.0
g5
(g9
S'\x00W \xf6h@\xc9@'
p156
tp157
Rp158
tp159
sS'AMCX'
p160
((lp161
I68
a(lp162
F650.6180871828237
(lp163
F10007.0
g5
(g9
S'\x00\x00\x00\x00\x80\x8b\xc3@'
p164
tp165
Rp166
tp167
sS'ABAX'
p168
((lp169
I40
aI105
aI308
aI442
aI600
aI720
aI884
aI966
aI1059
aI1166
aI1374
aI1520
aI1699
aI1919
a(lp170
I92
aI197
aI365
aI583
aI640
aI806
aI963
aI988
aI1120
aI1302
aI1455
aI1622
aI1784
aI1924
aF441.50110375275943
(lp171
F-0.07499999999999929
aF0.7999999999999972
aF-0.05000000000000071
aF0.625
aF0.0
aF0.6999999999999993
aF0.09999999999999787
aF-0.1999999999999993
aF-0.1999999999999993
aF1.7250000000000014
aF0.5249999999999986
aF0.5
aF0.1750000000000007
aF-0.10000000000000142
aF-0.27500000000000213
aF0.8499999999999979
aF0.05000000000000071
aF-0.02500000000000213
aF0.3500000000000014
aF0.09999999999999787
aF-0.05000000000000071
aF-0.14999999999999858
aF-0.07499999999999929
aF-0.05000000000000071
aF-0.22500000000000142
aF0.05000000000000071
aF0.625
aF10007.0
g5
(g9
S'\x1ai\x8e4\xc72\xc9@'
p172
tp173
Rp174
tp175
sS'ACIA'
p176
((lp177
I117
aI166
aI266
aI580
aI708
aI735
aI845
aI942
aI1112
aI1124
aI1156
aI1192
aI1228
aI1377
aI1419
aI1449
aI1580
aI1694
aI1723
aI1742
aI1775
a(lp178
I128
aI243
aI437
aI601
aI730
aI788
aI912
aI1099
aI1122
aI1151
aI1169
aI1216
aI1370
aI1379
aI1434
aI1563
aI1617
aI1711
aI1727
aI1772
aF1275.5102040816328
(lp179
F-0.09999999999999964
aF-0.05999999999999961
aF0.20999999999999996
aF-0.19500000000000028
aF-0.040000000000000036
aF-0.06950000000000056
aF0.0
aF0.11760000000000037
aF-0.04999999999999982
aF-0.07500000000000018
aF-0.040000000000000036
aF-9.999999999976694e-05
aF0.28889999999999993
aF-0.040000000000000036
aF-0.02999999999999936
aF0.009999999999999787
aF-0.040000000000000036
aF-0.03000000000000025
aF-0.040000000000000036
aF-0.03110000000000035
aF-0.0699999999999994
aF-0.20000000000000018
aF1.6150000000000002
aF-0.020000000000000462
aF-0.07000000000000028
aF-0.06950000000000056
aF-0.012399999999999523
aF-0.08999999999999986
aF-0.05999999999999961
aF-0.04499999999999993
aF-0.030100000000000016
aF-0.021100000000000563
aF-0.040000000000000036
aF-0.02999999999999936
aF-0.04999999999999982
aF-0.08000000000000007
aF-0.0
aF-0.040000000000000036
aF-0.03000000000000025
aF-0.041100000000000136
aF10007.0
g5
(g9
S'\xc7\xfa\xd0X\x9f\xa3\xc5@'
p180
tp181
Rp182
tp183
sS'ASRVP'
p184
((lp185
I41
a(lp186
F1000.0
(lp187
F10007.0
g5
(g9
S'\x00\x00\x00\x00\x80\x8b\xc3@'
p188
tp189
Rp190
tp191
sS'PIH'
p192
((lp193
I38
a(lp194
I138
aF344.3526170798898
(lp195
F0.6400000000000006
aF10007.0
g5
(g9
S'\x0b\xd0\xcb]\xb1\x00\xc4@'
p196
tp197
Rp198
tp199
sS'CRMT'
p200
((lp201
I61
a(lp202
F745.5564833591792
(lp203
F10007.0
g5
(g9
S'\x00\x00\x00\x00\x80\x8b\xc3@'
p204
tp205
Rp206
tp207
sS'AMOT'
p208
((lp209
I38
a(lp210
F357.78175313059035
(lp211
F10007.0
g5
(g9
S'\x00\x00\x00\x00\x80\x8b\xc3@'
p212
tp213
Rp214
tp215
sS'ANAT'
p216
((lp217
I139
a(lp218
F739.0327539316543
(lp219
F10007.0
g5
(g9
S'\x00\x00\x00\x00\x80\x8b\xc3@'
p220
tp221
Rp222
tp223
sS'ALQA'
p224
((lp225
I38
a(lp226
F337.95201081446436
(lp227
F10007.0
g5
(g9
S'\x00\x00\x00\x00\x80\x8b\xc3@'
p228
tp229
Rp230
tp231
sS'AMAT'
p232
((lp233
I115
a(lp234
F1250.0
(lp235
F10007.0
g5
(g9
S'\x00\x00\x00\x00\x80\x8b\xc3@'
p236
tp237
Rp238
tp239
sS'ACST'
p240
((lp241
I38
aI197
aI303
aI402
aI431
aI458
aI522
aI593
aI639
aI760
aI794
aI852
aI962
aI985
aI1019
aI1078
aI1114
aI1131
aI1181
aI1228
aI1327
aI1445
aI1486
aI1610
aI1680
a(lp242
I156
aI200
aI392
aI415
aI445
aI483
aI532
aI600
aI680
aI774
aI817
aI940
aI981
aI992
aI1056
aI1087
aI1122
aI1162
aI1190
aI1250
aI1430
aI1461
aI1598
aI1641
aI1684
aF690.1311249137336
(lp243
F-0.03279999999999994
aF-0.04499999999999993
aF0.16000000000000014
aF-0.11999999999999922
aF-0.03500000000000014
aF-0.05000000000000071
aF-0.049999999999998934
aF-0.049900000000000944
aF-0.049999999999998934
aF-0.08939999999999948
aF-0.08560000000000123
aF-0.049999999999998934
aF-0.1264000000000003
aF-0.060100000000000264
aF0.0
aF-0.07000000000000028
aF-0.08000000000000007
aF-0.11000000000000121
aF-0.02999999999999936
aF-0.25
aF-0.04100000000000037
aF-0.05000000000000071
aF0.11999999999999922
aF0.0
aF-0.10000000000000142
aF-0.017799999999999372
aF0.35999999999999943
aF-0.10999999999999943
aF-0.08499999999999908
aF-0.040000000000000924
aF-0.0
aF-0.029899999999999594
aF-0.009999999999999787
aF-0.019399999999999196
aF-0.07000000000000028
aF-0.13560000000000016
aF-0.07639999999999958
aF-0.11010000000000097
aF-0.02999999999999936
aF0.009999999999999787
aF-0.08999999999999986
aF-0.120000000000001
aF-0.05000000000000071
aF-0.10999999999999943
aF-0.04100000000000037
aF-0.07000000000000028
aF-0.030000000000001137
aF-0.0
aF0.02999999999999936
aF10007.0
g5
(g9
S'\x98\xa3\x92\xf2\xeb\xff\xc1@'
p244
tp245
Rp246
tp247
sS'ABMD'
p248
((lp249
I69
aI145
aI204
aI225
aI344
aI655
aI672
aI700
aI719
aI730
aI751
aI767
aI862
aI954
aI990
aI1120
aI1215
aI1267
a(lp250
I78
aI151
aI208
aI227
aI575
aI666
aI694
aI710
aI723
aI732
aI763
aI779
aI877
aI982
aI993
aI1170
aI1218
aI1319
aF7783.312577833126
(lp251
F0.0052000000000000934
aF-0.010000000000000009
aF-0.06000000000000005
aF-0.010000000000000009
aF0.24
aF-0.010000000000000009
aF0.0
aF-0.030000000000000027
aF-0.010000000000000009
aF-0.03990000000000005
aF-0.020000000000000018
aF-0.030000000000000027
aF-0.014999999999999902
aF-0.02499999999999991
aF-0.039999999999999813
aF-0.010000000000000009
aF-0.020000000000000018
aF0.0
aF0.010000000000000009
aF-0.030000000000000027
aF-0.020000000000000018
aF0.050000000000000044
aF-0.0
aF-0.010000000000000009
aF-0.010000000000000009
aF-0.030000000000000027
aF-0.010000000000000009
aF-0.03990000000000005
aF-0.020000000000000018
aF0.030000000000000027
aF-0.014999999999999902
aF-0.02499999999999991
aF0.040000000000000036
aF-0.020000000000000018
aF0.010000000000000009
aF10007.0
g5
(g9
S'\xa2\xcd\xc9M\x04\xd9\xc1@'
p252
tp253
Rp254
tp255
sS'AOSL'
p256
((lp257
I38
a(lp258
F358.48718408316904
(lp259
F10007.0
g5
(g9
S'\x00\x00\x00\x00\x80\x8b\xc3@'
p260
tp261
Rp262
tp263
sS'ANDAR'
p264
((lp265
I175
a(lp266
F392.15686274509807
(lp267
F10007.0
g5
(g9
S'\x00\x00\x00\x00\x80\x8b\xc3@'
p268
tp269
Rp270
tp271
sS'FLWS'
p272
((lp273
I267
aI379
aI679
a(lp274
I353
aI489
aF8333.333333333334
(lp275
F-0.010000000000000009
aF0.3503999999999998
aF-0.04920000000000013
aF0.26959999999999984
aF10007.0
g5
(g9
S'\xa8\xaa\xaa\xaa*\xc8\xcc@'
p276
tp277
Rp278
tp279
sS'TURN'
p280
((lp281
I69
aI108
a(lp282
I81
aI274
aF487.8048780487805
(lp283
F0.3500000000000014
aF1.7999999999999972
aF-0.0
aF10007.0
g5
(g9
S'p>\x06\xe7\xe3\xac\xc5@'
p284
tp285
Rp286
tp287
sS'AKTS'
p288
((lp289
I42
a(lp290
F341.2247237785861
(lp291
F10007.0
g5
(g9
S'\x00\x00\x00\x00\x80\x8b\xc3@'
p292
tp293
Rp294
tp295
sS'ALNY'
p296
((lp297
I114
a(lp298
F666.6666666666666
(lp299
F10007.0
g5
(g9
S'\x00\x00\x00\x00\x80\x8b\xc3@'
p300
tp301
Rp302
tp303
sS'AMWD'
p304
((lp305
I38
a(lp306
F550.9641873278238
(lp307
F10007.0
g5
(g9
S'\x00\x00\x00\x00\x80\x8b\xc3@'
p308
tp309
Rp310
tp311
sS'AIRT'
p312
((lp313
I38
a(lp314
F1005.0251256281408
(lp315
F10007.0
g5
(g9
S'\x00\x00\x00\x00\x80\x8b\xc3@'
p316
tp317
Rp318
tp319
sS'AMBA'
p320
((lp321
I42
a(lp322
F493.82716049382714
(lp323
F10007.0
g5
(g9
S'\x00\x00\x00\x00\x80\x8b\xc3@'
p324
tp325
Rp326
tp327
sS'ARRY'
p328
((lp329
I102
a(lp330
F382.55547054322875
(lp331
F10007.0
g5
(g9
S'\x00\x00\x00\x00\x80\x8b\xc3@'
p332
tp333
Rp334
tp335
sS'AIRG'
p336
((lp337
I38
a(lp338
F227.01475595913735
(lp339
F10007.0
g5
(g9
S'\x00\x00\x00\x00\x80\x8b\xc3@'
p340
tp341
Rp342
tp343
sS'GOOG'
p344
((lp345
I116
a(lp346
F975.609756097561
(lp347
F10007.0
g5
(g9
S'\x00\x00\x00\x00\x80\x8b\xc3@'
p348
tp349
Rp350
tp351
sS'AKRX'
p352
((lp353
I39
a(lp354
F503.0155783924628
(lp355
F10007.0
g5
(g9
S'\x00\x00\x00\x00\x80\x8b\xc3@'
p356
tp357
Rp358
tp359
sS'ABEOW'
p360
((lp361
I40
aI312
aI334
aI361
aI415
aI524
aI569
aI695
aI998
aI1225
aI1449
aI1692
aI1753
aI1771
aI1779
aI1907
a(lp362
I163
aI325
aI338
aI366
aI419
aI545
aI586
aI844
aI1108
aI1427
aI1467
aI1746
aI1765
aI1777
aI1869
aI1936
aF207.0393374741201
(lp363
F3.9000000000000057
aF-0.25
aF-0.25
aF-0.3500000000000014
aF-0.14999999999999858
aF-0.29999999999999716
aF-0.22479999999999478
aF1.0500000000000043
aF1.25
aF2.2749999999999986
aF-0.5999999999999943
aF0.025000000000005684
aF-0.14999999999999858
aF-0.07500000000000284
aF0.7000000000000028
aF-0.6749999999999972
aF1.4000000000000057
aF-0.30000000000000426
aF-0.29999999999999716
aF-0.05000000000000426
aF0.4000000000000057
aF-0.29999999999999716
aF0.5252000000000052
aF0.45000000000000284
aF1.3249999999999957
aF-0.19999999999999574
aF2.2750000000000057
aF-0.04999999999999716
aF-0.14999999999999858
aF-0.22500000000000142
aF-0.5249999999999986
aF10007.0
g5
(g9
S'En\x10kR\x9e\xc8@'
p364
tp365
Rp366
tp367
sS'ALBO'
p368
((lp369
I38
a(lp370
F547.945205479452
(lp371
F10007.0
g5
(g9
S'\x00\x00\x00\x00\x80\x8b\xc3@'
p372
tp373
Rp374
tp375
sS'APTO'
p376
((lp377
I189
a(lp378
F1008.9799212995662
(lp379
F10007.0
g5
(g9
S'\x00\x00\x00\x00\x80\x8b\xc3@'
p380
tp381
Rp382
tp383
sS'FCCY'
p384
((lp385
I38
aI248
aI286
aI379
a(lp386
I183
aI262
aI318
aF2040.816326530612
(lp387
F0.7978999999999994
aF-0.1636999999999995
aF-0.1949999999999994
aF-0.11580000000000013
aF-0.1949999999999994
aF-0.14999999999999947
aF10007.0
g5
(g9
S'j\xac\x0f\x8du\x9f\xc3@'
p388
tp389
Rp390
tp391
sS'ATRS'
p392
((lp393
I44
a(lp394
F990.0990099009902
(lp395
F10007.0
g5
(g9
S'\x00\x00\x00\x00\x80\x8b\xc3@'
p396
tp397
Rp398
tp399
sS'AKCA'
p400
((lp401
I38
a(lp402
F111.73184357541899
(lp403
F10007.0
g5
(g9
S'\x00\x00\x00\x00\x80\x8b\xc3@'
p404
tp405
Rp406
tp407
sS'ALXN'
p408
((lp409
I55
a(lp410
F385.35645472061657
(lp411
F10007.0
g5
(g9
S'\x00\x00\x00\x00\x80\x8b\xc3@'
p412
tp413
Rp414
tp415
sS'AIMT'
p416
((lp417
I41
a(lp418
F367.1071953010279
(lp419
F10007.0
g5
(g9
S'\x00\x00\x00\x00\x80\x8b\xc3@'
p420
tp421
Rp422
tp423
sS'ALDX'
p424
((lp425
I39
a(lp426
F582.0721769499418
(lp427
F10007.0
g5
(g9
S'\x00\x00\x00\x00\x80\x8b\xc3@'
p428
tp429
Rp430
tp431
sS'AKAM'
p432
((lp433
I38
a(lp434
F345.7814661134163
(lp435
F10007.0
g5
(g9
S'\x00\x00\x00\x00\x80\x8b\xc3@'
p436
tp437
Rp438
tp439
sS'AQXP'
p440
((lp441
I38
a(lp442
F1819.9686965384194
(lp443
F10007.0
g5
(g9
S'\x00\x00\x00\x00\x80\x8b\xc3@'
p444
tp445
Rp446
tp447
sS'ACHC'
p448
((lp449
I59
aI158
aI171
aI244
aI351
aI420
aI448
aI499
aI649
aI658
aI796
aI829
aI858
aI940
aI1025
aI1045
aI1220
aI1253
aI1467
aI1571
aI1584
aI1663
aI1735
a(lp450
I152
aI166
aI183
aI267
aI408
aI435
aI473
aI571
aI654
aI709
aI811
aI840
aI862
aI996
aI1042
aI1127
aI1242
aI1259
aI1469
aI1575
aI1634
aI1685
aF909.0909090909091
(lp451
F0.03999999999999915
aF-0.0020999999999986585
aF-0.02000000000000135
aF-0.03999999999999915
aF0.030000000000001137
aF-0.0129999999999999
aF0.0003000000000010772
aF-0.00990000000000002
aF-0.013199999999999434
aF-0.0030000000000001137
aF-0.030000000000001137
aF-0.016399999999999082
aF-0.007999999999999119
aF-0.014300000000000423
aF-0.019999999999999574
aF0.007900000000001128
aF-0.009800000000000253
aF-0.03999999999999915
aF-0.19000000000000128
aF-0.07049999999999912
aF-0.07000000000000028
aF-0.054999999999999716
aF-0.0029000000000003467
aF-0.009199999999999875
aF0.009999999999999787
aF0.040000000000000924
aF-0.009999999999999787
aF-0.012699999999998823
aF-0.03999999999999915
aF0.010099999999999554
aF-0.013199999999999434
aF0.036999999999999034
aF-0.019999999999999574
aF-0.016399999999999082
aF0.02200000000000024
aF-0.014300000000000423
aF-0.03999999999999915
aF0.03810000000000002
aF-0.02999999999999936
aF0.9100000000000001
aF0.03999999999999915
aF-0.1404999999999994
aF-0.054999999999999716
aF-0.13000000000000078
aF10007.0
g5
(g9
S'J\x17]tQ\xcb\xc4@'
p452
tp453
Rp454
tp455
sS'EGHT'
p456
((lp457
I38
aI303
aI561
aI760
aI879
aI1282
aI1399
aI1511
aI1679
aI1879
a(lp458
I277
aI436
aI679
aI877
aI1118
aI1310
aI1438
aI1578
aI1836
aI1935
aF80.64028385379918
(lp459
F3.572500000000005
aF0.9499999999999886
aF4.549999999999983
aF1.0649999999999977
aF3.8700000000000045
aF-0.8799999999999955
aF-0.15000000000000568
aF0.2400000000000091
aF2.859999999999985
aF-0.4700000000000273
aF-1.0700000000000074
aF1.049999999999983
aF-0.05500000000000682
aF-0.5999999999999943
aF3.8799999999999955
aF0.8700000000000045
aF0.15000000000000568
aF1.6699999999999875
aF-0.4200000000000159
aF10007.0
g5
(g9
S'd+\xf7\xa4\x8cb\xc7@'
p460
tp461
Rp462
tp463
sS'AMRN'
p464
((lp465
I45
a(lp466
F857.0449091532397
(lp467
F10007.0
g5
(g9
S'\x00\x00\x00\x00\x80\x8b\xc3@'
p468
tp469
Rp470
tp471
sS'BWINA'
p472
((lp473
I217
a(lp474
F10309.278350515464
(lp475
F10007.0
g5
(g9
S'\x00\x00\x00\x00\x80\x8b\xc3@'
p476
tp477
Rp478
tp479
sS'ARCB'
p480
((lp481
I39
a(lp482
F239.46360153256705
(lp483
F10007.0
g5
(g9
S'\x00\x00\x00\x00\x80\x8b\xc3@'
p484
tp485
Rp486
tp487
sS'AHGP'
p488
((lp489
I53
a(lp490
F219.78021978021977
(lp491
F10007.0
g5
(g9
S'\x00\x00\x00\x00\x80\x8b\xc3@'
p492
tp493
Rp494
tp495
sS'AXAS'
p496
((lp497
I54
aI120
aI238
aI279
aI405
aI560
aI613
aI721
aI1037
aI1214
aI1388
aI1407
aI1459
aI1515
aI1523
aI1634
aI1685
aI1907
aI1962
a(lp498
I80
aI213
aI241
aI287
aI437
aI604
aI635
aI955
aI1154
aI1372
aI1398
aI1411
aI1465
aI1517
aI1527
aI1641
aI1755
aI1942
aF277.77777777777777
(lp499
F-0.14999999999999858
aF0.10000000000000142
aF-0.3500000000000014
aF-0.3500000000000014
aF-0.2749999999999986
aF-0.0800000000000054
aF-0.5
aF0.7999999999999972
aF1.0
aF1.1799999999999997
aF-0.10430000000000206
aF-0.17500000000000426
aF-0.2950000000000017
aF-0.20000000000000284
aF-0.10000000000000142
aF-0.45000000000000284
aF-0.10000000000000142
aF-0.25
aF-1.1499999999999986
aF-0.10000000000000142
aF-0.10000000000000142
aF0.45000000000000284
aF0.42499999999999716
aF-0.23000000000000398
aF0.5
aF0.6999999999999957
aF-0.2749999999999986
aF-0.045000000000001705
aF-0.25430000000000064
aF-0.020000000000003126
aF-0.10000000000000142
aF-0.10000000000000142
aF0.44999999999999574
aF-0.3500000000000014
aF1.1000000000000014
aF-0.7000000000000028
aF10007.0
g5
(g9
S'2\x8e\xe38\xcey\xc4@'
p500
tp501
Rp502
tp503
sS'AVHI'
p504
((lp505
I208
aI321
aI382
aI442
aI722
aI879
aI1041
aI1203
aI1436
aI1581
aI1642
a(lp506
I307
aI368
aI399
aI481
aI824
aI958
aI1065
aI1359
aI1479
aI1600
aI1972
aF973.7098344693281
(lp507
F0.13000000000000078
aF0.1416000000000004
aF-0.25
aF-0.02800000000000047
aF0.08999999999999986
aF-0.9699999999999998
aF-0.1064999999999996
aF0.28000000000000025
aF-0.20000000000000018
aF-0.28000000000000025
aF2.129999999999999
aF-0.01839999999999975
aF-0.16999999999999993
aF-0.16999999999999993
aF2.792
aF-0.8300000000000001
aF0.3230000000000004
aF0.6005000000000003
aF0.040000000000000036
aF0.09999999999999964
aF-0.2400000000000002
aF10007.0
g5
(g9
S'@U\x8e\x97`\x84\xca@'
p508
tp509
Rp510
tp511
sS'ACRX'
p512
((lp513
I38
aI121
aI134
aI154
aI275
aI342
aI423
aI448
aI606
aI628
aI689
aI826
aI900
aI1027
aI1054
aI1078
aI1149
aI1184
aI1197
aI1214
aI1234
aI1349
aI1478
aI1621
aI1633
aI1726
aI1764
aI1788
aI1822
aI1832
a(lp514
I97
aI130
aI148
aI243
aI299
aI388
aI436
aI596
aI626
aI670
aI743
aI829
aI1015
aI1051
aI1076
aI1146
aI1162
aI1185
aI1200
aI1226
aI1331
aI1461
aI1523
aI1624
aI1717
aI1750
aI1779
aI1818
aI1827
aF166.7778519012675
(lp515
F-0.002600000000001046
aF-0.0018999999999991246
aF-0.003099999999996328
aF0.027999999999998693
aF-0.003700000000002035
aF-0.00999999999999801
aF-0.0049999999999954525
aF0.006700000000002149
aF-0.010000000000005116
aF0.0
aF-0.0049999999999954525
aF-0.015000000000000568
aF0.00010000000000331966
aF-0.006500000000002615
aF-0.02009999999999934
aF-0.004199999999997317
aF-0.007899999999999352
aF-0.0031999999999996476
aF-0.008000000000002672
aF-0.004899999999999238
aF0.014400000000001967
aF-0.003099999999996328
aF-0.004899999999999238
aF-0.016899999999999693
aF-0.0071000000000012164
aF-0.006500000000002615
aF-0.006300000000003081
aF-0.006700000000002149
aF-0.010000000000005116
aF-0.0015000000000000568
aF-0.002899999999996794
aF-0.0031999999999996476
aF-0.0020000000000024443
aF-0.013700000000000045
aF-0.0049999999999954525
aF-0.00999999999999801
aF-0.013300000000000978
aF-0.010000000000005116
aF-0.0049999999999954525
aF0.045000000000001705
aF-0.01999999999999602
aF-0.006399999999999295
aF-0.030000000000001137
aF-0.01630000000000109
aF-0.006000000000000227
aF-0.0081999999999951
aF-0.0029000000000038995
aF-0.009900000000001796
aF-0.0005999999999986017
aF-0.003099999999996328
aF-0.014999999999993463
aF0.05299999999999727
aF-0.026899999999997704
aF-0.010000000000005116
aF-0.006500000000002615
aF-0.0030000000000001137
aF-0.010000000000005116
aF-0.013500000000000512
aF10007.0
g5
(g9
S';q\x0bG \n\xc5@'
p516
tp517
Rp518
tp519
sS'AMRK'
p520
((lp521
I38
a(lp522
F413.22314049586777
(lp523
F10007.0
g5
(g9
S'\x00\x00\x00\x00\x80\x8b\xc3@'
p524
tp525
Rp526
tp527
sS'ABDC'
p528
((lp529
I41
a(lp530
F438.98156277436345
(lp531
F10007.0
g5
(g9
S'\x00\x00\x00\x00\x80\x8b\xc3@'
p532
tp533
Rp534
tp535
sS'AMRB'
p536
((lp537
I38
a(lp538
F307.6923076923077
(lp539
F10007.0
g5
(g9
S'\x00\x00\x00\x00\x80\x8b\xc3@'
p540
tp541
Rp542
tp543
sS'AMMA'
p544
((lp545
I45
a(lp546
F574.7126436781609
(lp547
F10007.0
g5
(g9
S'\x00\x00\x00\x00\x80\x8b\xc3@'
p548
tp549
Rp550
tp551
sS'AMBC'
p552
((lp553
I44
a(lp554
F142.34875444839858
(lp555
F10007.0
g5
(g9
S'\x00\x00\x00\x00\x80\x8b\xc3@'
p556
tp557
Rp558
tp559
sS'VNET'
p560
((lp561
I59
aI120
aI226
aI249
aI420
aI744
a(lp562
I98
aI182
aI243
aI416
aI607
aI825
aF1333.6889837289943
(lp563
F-0.1980000000000004
aF0.001000000000000334
aF-0.32010000000000005
aF0.9850000000000003
aF1.0099999999999998
aF0.16000000000000014
aF-0.19899999999999984
aF-0.1900000000000004
aF-0.03509999999999991
aF-0.25
aF0.5
aF10007.0
g5
(g9
S'\x16\xfe\xeb\x80\xa0\xa8\xc7@'
p564
tp565
Rp566
tp567
sS'ALRM'
p568
((lp569
I38
a(lp570
F930.0595238095237
(lp571
F10007.0
g5
(g9
S'\x00\x00\x00\x00\x80\x8b\xc3@'
p572
tp573
Rp574
tp575
sS'ALRN'
p576
((lp577
I61
a(lp578
F913.8512432946164
(lp579
F10007.0
g5
(g9
S'\x00\x00\x00\x00\x80\x8b\xc3@'
p580
tp581
Rp582
tp583
sS'TWOU'
p584
((lp585
I44
aI156
aI425
aI549
aI662
aI855
aI963
a(lp586
I79
aI276
aI519
aI627
aI798
aI942
aF514.1388174807198
(lp587
F-0.5500000000000007
aF0.25
aF0.4499999999999993
aF0.05000000000000071
aF0.5999999999999979
aF0.5
aF0.14999999999999858
aF0.5
aF-0.3000000000000007
aF-0.5
aF-0.20000000000000284
aF-0.25
aF10007.0
g5
(g9
S'S3\x8a\xd6r\x93\xc4@'
p588
tp589
Rp590
tp591
sS'AMOV'
p592
((lp593
I39
a(lp594
F1639.344262295082
(lp595
F10007.0
g5
(g9
S'\x00\x00\x00\x00\x80\x8b\xc3@'
p596
tp597
Rp598
tp599
sS'ACTG'
p600
((lp601
I44
aI158
aI280
aI383
aI395
aI598
aI722
aI743
aI762
aI811
aI842
aI987
aI1005
aI1049
aI1309
aI1475
aI1602
aI1728
aI1769
aI1872
aI1915
aI1956
a(lp602
I127
aI240
aI282
aI389
aI476
aI607
aI731
aI759
aI767
aI837
aI863
aI998
aI1045
aI1157
aI1398
aI1479
aI1636
aI1767
aI1847
aI1883
aI1950
aF1253.1328320802004
(lp603
F-0.005000000000000782
aF-0.009999999999999787
aF-0.03890000000000082
aF-0.016499999999999737
aF0.20500000000000007
aF0.0
aF-0.05000000000000071
aF0.0
aF-0.07000000000000028
aF-0.029900000000000482
aF-0.04899999999999949
aF-0.08499999999999996
aF-0.016799999999999926
aF0.11950000000000038
aF-0.010000000000000675
aF-0.08750000000000036
aF0.0
aF-0.009999999999999787
aF0.015000000000000568
aF-0.025000000000000355
aF-0.020000000000000462
aF-0.03500000000000014
aF-0.008900000000000574
aF0.14339999999999975
aF-0.03989999999999938
aF0.3049999999999997
aF0.09999999999999964
aF-0.040000000000000036
aF-0.03000000000000025
aF-0.029900000000000482
aF-0.040000000000000036
aF0.04600000000000026
aF-0.08000000000000007
aF-0.007299999999999862
aF0.08000000000000007
aF-0.010000000000000675
aF0.12249999999999961
aF0.03000000000000025
aF-0.019999999999999574
aF-0.05999999999999961
aF-0.020000000000000462
aF-0.08000000000000007
aF10007.0
g5
(g9
S'*7\xb6\xdcX\n\xc5@'
p604
tp605
Rp606
tp607
s.